; Function Attrs: mustprogress uwtable
define hidden noundef ptr @_ZN4cvc58internal6theory2bv8TheoryBV15getProofCheckerEv(ptr noundef nonnull align 8 dereferenceable(3808) %this) unnamed_addr #3 align 2 {
entry:
  %call = tail call noundef nonnull align 8 dereferenceable(392) ptr @_ZNK4cvc58internal6EnvObj7optionsEv(ptr noundef nonnull align 8 dereferenceable(16) %this)
  %bv = getelementptr inbounds i8, ptr %call, i64 232
  %0 = load ptr, ptr %bv, align 8
  %bvSolver = getelementptr inbounds i8, ptr %0, i64 36
  %1 = load i32, ptr %bvSolver, align 4
  %cmp = icmp eq i32 %1, 1
  br i1 %cmp, label %if.then, label %return

if.then:                                          ; preds = %entry
  %d_internal = getelementptr inbounds i8, ptr %this, i64 408
  %2 = load ptr, ptr %d_internal, align 8
  %call3 = tail call noundef ptr @_ZN4cvc58internal6theory2bv24BVSolverBitblastInternal15getProofCheckerEv(ptr noundef nonnull align 8 dereferenceable(56) %2)
  br label %return

return:                                           ; preds = %entry, %if.then
  %retval.0 = phi ptr [ %call3, %if.then ], [ null, %entry ]
  ret ptr %retval.0
}